target datalayout = "e-m:e-p270:32:32-p271:32:32-p272:64:64-i64:64-i128:128-f80:128-n8:16:32:64-S128"
target triple = "x86_64-pc-linux-gnu"

%class.QString = type { %struct.QArrayDataPointer }
%struct.QArrayDataPointer = type { ptr, ptr, i64 }
%class.QColor = type <{ i32, %"union.QColor::CT", [2 x i8] }>
%"union.QColor::CT" = type { %struct.anon }
%struct.anon = type { i16, i16, i16, i16, i16 }
%class.ColoringRuleItem = type { %class.ModelHelperTreeItem, i8, %class.QString, %class.QString, %class.QColor, %class.QColor }
%class.ModelHelperTreeItem = type { ptr, ptr, %class.QList }
%class.QList = type { %struct.QArrayDataPointer.4 }
%struct.QArrayDataPointer.4 = type { ptr, ptr, i64 }

; Function Attrs: mustprogress nounwind uwtable
define noundef nonnull align 8 dereferenceable(128) ptr @_ZN16ColoringRuleItemaSERS_(ptr noundef nonnull align 8 dereferenceable(128) %0, ptr noundef nonnull align 8 dereferenceable(128) %1) #1 align 2 {
  %3 = alloca ptr, align 8
  %4 = alloca ptr, align 8
  store ptr %0, ptr %3, align 8
  store ptr %1, ptr %4, align 8
  %5 = load ptr, ptr %3, align 8
  %6 = load ptr, ptr %4, align 8
  %7 = getelementptr inbounds %class.ColoringRuleItem, ptr %6, i32 0, i32 1
  %8 = load i8, ptr %7, align 8
  %9 = trunc i8 %8 to i1
  %10 = getelementptr inbounds %class.ColoringRuleItem, ptr %5, i32 0, i32 1
  %11 = zext i1 %9 to i8
  store i8 %11, ptr %10, align 8
  %12 = load ptr, ptr %4, align 8
  %13 = getelementptr inbounds %class.ColoringRuleItem, ptr %12, i32 0, i32 2
  %14 = getelementptr inbounds %class.ColoringRuleItem, ptr %5, i32 0, i32 2
  %15 = call noundef nonnull align 8 dereferenceable(24) ptr @_ZN7QStringaSERKS_(ptr noundef nonnull align 8 dereferenceable(24) %14, ptr noundef nonnull align 8 dereferenceable(24) %13) #13
  %16 = load ptr, ptr %4, align 8
  %17 = getelementptr inbounds %class.ColoringRuleItem, ptr %16, i32 0, i32 3
  %18 = getelementptr inbounds %class.ColoringRuleItem, ptr %5, i32 0, i32 3
  %19 = call noundef nonnull align 8 dereferenceable(24) ptr @_ZN7QStringaSERKS_(ptr noundef nonnull align 8 dereferenceable(24) %18, ptr noundef nonnull align 8 dereferenceable(24) %17) #13
  %20 = load ptr, ptr %4, align 8
  %21 = getelementptr inbounds %class.ColoringRuleItem, ptr %20, i32 0, i32 4
  %22 = getelementptr inbounds %class.ColoringRuleItem, ptr %5, i32 0, i32 4
  call void @llvm.memcpy.p0.p0.i64(ptr align 8 %22, ptr align 8 %21, i64 14, i1 false)
  %23 = load ptr, ptr %4, align 8
  %24 = getelementptr inbounds %class.ColoringRuleItem, ptr %23, i32 0, i32 5
  %25 = getelementptr inbounds %class.ColoringRuleItem, ptr %5, i32 0, i32 5
  call void @llvm.memcpy.p0.p0.i64(ptr align 8 %25, ptr align 8 %24, i64 14, i1 false)
  ret ptr %5
}