; Function Attrs: mustprogress nounwind uwtable
define noundef nonnull align 8 dereferenceable(128) ptr @_ZN16ColoringRuleItemaSERS_(ptr noundef nonnull returned align 8 dereferenceable(128) %0, ptr noundef nonnull align 8 dereferenceable(128) %1) local_unnamed_addr #2 align 2 {
  %3 = getelementptr inbounds i8, ptr %1, i64 40
  %4 = load i8, ptr %3, align 8
  %5 = and i8 %4, 1
  %6 = getelementptr inbounds i8, ptr %0, i64 40
  store i8 %5, ptr %6, align 8
  %7 = getelementptr inbounds i8, ptr %1, i64 48
  %8 = getelementptr inbounds i8, ptr %0, i64 48
  %9 = tail call noundef nonnull align 8 dereferenceable(24) ptr @_ZN7QStringaSERKS_(ptr noundef nonnull align 8 dereferenceable(24) %8, ptr noundef nonnull align 8 dereferenceable(24) %7) #18
  %10 = getelementptr inbounds i8, ptr %1, i64 72
  %11 = getelementptr inbounds i8, ptr %0, i64 72
  %12 = tail call noundef nonnull align 8 dereferenceable(24) ptr @_ZN7QStringaSERKS_(ptr noundef nonnull align 8 dereferenceable(24) %11, ptr noundef nonnull align 8 dereferenceable(24) %10) #18
  %13 = getelementptr inbounds i8, ptr %1, i64 96
  %14 = getelementptr inbounds i8, ptr %0, i64 96
  tail call void @llvm.memcpy.p0.p0.i64(ptr noundef nonnull align 8 dereferenceable(14) %14, ptr noundef nonnull align 8 dereferenceable(14) %13, i64 14, i1 false)
  %15 = getelementptr inbounds i8, ptr %1, i64 112
  %16 = getelementptr inbounds i8, ptr %0, i64 112
  tail call void @llvm.memcpy.p0.p0.i64(ptr noundef nonnull align 8 dereferenceable(14) %16, ptr noundef nonnull align 8 dereferenceable(14) %15, i64 14, i1 false)
  ret ptr %0
}